; Function Attrs: mustprogress nounwind uwtable
define internal noundef i32 @_ZN4node4heap12_GLOBAL__N_118HeapSnapshotStream9ReadStartEv(ptr noundef nonnull align 8 dereferenceable(136) %this) unnamed_addr #3 align 2 {
entry:
  %snapshot_ = getelementptr inbounds i8, ptr %this, i64 128
  %0 = load ptr, ptr %snapshot_, align 8
  %cmp.i.i.not = icmp eq ptr %0, null
  br i1 %cmp.i.i.not, label %do.body4, label %do.end5

do.body4:                                         ; preds = %entry
  tail call void @_ZN4node6AssertERKNS_13AssertionInfoE(ptr noundef nonnull align 8 dereferenceable(24) @_ZZN4node4heap12_GLOBAL__N_118HeapSnapshotStream9ReadStartEvE4args) #22
  tail call void @abort() #26
  unreachable

do.end5:                                          ; preds = %entry
  %add.ptr = getelementptr inbounds i8, ptr %this, i64 120
  tail call void @_ZNK2v812HeapSnapshot9SerializeEPNS_12OutputStreamENS0_19SerializationFormatE(ptr noundef nonnull align 1 dereferenceable(1) %0, ptr noundef nonnull %add.ptr, i32 noundef 0) #22
  ret i32 0
}